target datalayout = "e-m:e-p270:32:32-p271:32:32-p272:64:64-i64:64-i128:128-f80:128-n8:16:32:64-S128"
target triple = "x86_64-pc-linux-gnu"

; Function Attrs: inlinehint nounwind uwtable
define internal i64 @lean_unbox(ptr noundef %0) #0 {
  %2 = alloca ptr, align 8
  store ptr %0, ptr %2, align 8, !tbaa !4
  %3 = load ptr, ptr %2, align 8, !tbaa !4
  %4 = ptrtoint ptr %3 to i64
  %5 = lshr i64 %4, 1
  ret i64 %5
}

; Function Attrs: alwaysinline nounwind uwtable
define internal zeroext i1 @lean_is_scalar(ptr noundef %0) #1 {
  %2 = alloca ptr, align 8
  store ptr %0, ptr %2, align 8, !tbaa !4
  %3 = load ptr, ptr %2, align 8, !tbaa !4
  %4 = ptrtoint ptr %3 to i64
  %5 = and i64 %4, 1
  %6 = icmp eq i64 %5, 1
  ret i1 %6
}

; Function Attrs: inlinehint nounwind uwtable
define internal ptr @lean_nat_to_int(ptr noundef %0) #0 {
  %2 = alloca ptr, align 8
  %3 = alloca ptr, align 8
  %4 = alloca i64, align 8
  %5 = alloca i32, align 4
  store ptr %0, ptr %3, align 8, !tbaa !4
  %6 = load ptr, ptr %3, align 8, !tbaa !4
  %7 = call zeroext i1 @lean_is_scalar(ptr noundef %6)
  br i1 %7, label %8, label %19

8:                                                ; preds = %1
  call void @llvm.lifetime.start.p0(i64 8, ptr %4) #7
  %9 = load ptr, ptr %3, align 8, !tbaa !4
  %10 = call i64 @lean_unbox(ptr noundef %9)
  store i64 %10, ptr %4, align 8, !tbaa !8
  %11 = load i64, ptr %4, align 8, !tbaa !8
  %12 = icmp ule i64 %11, 2147483647
  br i1 %12, label %13, label %15

13:                                               ; preds = %8
  %14 = load ptr, ptr %3, align 8, !tbaa !4
  store ptr %14, ptr %2, align 8
  store i32 1, ptr %5, align 4
  br label %18

15:                                               ; preds = %8
  %16 = load i64, ptr %4, align 8, !tbaa !8
  %17 = call ptr @lean_big_size_t_to_int(i64 noundef %16)
  store ptr %17, ptr %2, align 8
  store i32 1, ptr %5, align 4
  br label %18

18:                                               ; preds = %15, %13
  call void @llvm.lifetime.end.p0(i64 8, ptr %4) #7
  br label %21

19:                                               ; preds = %1
  %20 = load ptr, ptr %3, align 8, !tbaa !4
  store ptr %20, ptr %2, align 8
  br label %21

21:                                               ; preds = %19, %18
  %22 = load ptr, ptr %2, align 8
  ret ptr %22
}

; Function Attrs: nounwind uwtable
define ptr @l_Std_Time_Internal_Bounded_LE_ofFin___rarg(ptr noundef %0) #2 {
  %2 = alloca ptr, align 8
  %3 = alloca ptr, align 8
  store ptr %0, ptr %2, align 8, !tbaa !4
  br label %4

4:                                                ; preds = %1
  call void @llvm.lifetime.start.p0(i64 8, ptr %3) #7
  %5 = load ptr, ptr %2, align 8, !tbaa !4
  %6 = call ptr @lean_nat_to_int(ptr noundef %5)
  store ptr %6, ptr %3, align 8, !tbaa !4
  %7 = load ptr, ptr %3, align 8, !tbaa !4
  call void @llvm.lifetime.end.p0(i64 8, ptr %3) #7
  ret ptr %7
}